; ModuleID = '4/1587.c'
source_filename = "4/1587.c"
target datalayout = "e-m:e-p270:32:32-p271:32:32-p272:64:64-i64:64-f80:128-n8:16:32:64-S128"
target triple = "x86_64-pc-linux-gnu"

@.str = private unnamed_addr constant [6 x i8] c"%d %d\00", align 1
@.str.1 = private unnamed_addr constant [3 x i8] c"%d\00", align 1
@.str.2 = private unnamed_addr constant [4 x i8] c"%d\0A\00", align 1

; Function Attrs: noinline nounwind uwtable
define dso_local void @main() #0 {
  %1 = alloca i32*, align 8
  %2 = alloca i32, align 4
  %3 = alloca i32, align 4
  %4 = alloca i32, align 4
  %5 = alloca i32, align 4
  %6 = call i32 (i8*, ...) @__isoc99_scanf(i8* getelementptr inbounds ([6 x i8], [6 x i8]* @.str, i64 0, i64 0), i32* %4, i32* %5)
  %7 = call noalias i8* @calloc(i64 200, i64 800) #3
  %8 = bitcast i8* %7 to i32*
  store i32* %8, i32** %1, align 8
  store i32 0, i32* %2, align 4
  br label %9

9:                                                ; preds = %33, %0
  %10 = load i32, i32* %2, align 4
  %11 = load i32, i32* %4, align 4
  %12 = icmp slt i32 %10, %11
  br i1 %12, label %13, label %36

13:                                               ; preds = %9
  store i32 0, i32* %3, align 4
  br label %14

14:                                               ; preds = %29, %13
  %15 = load i32, i32* %3, align 4
  %16 = load i32, i32* %5, align 4
  %17 = icmp slt i32 %15, %16
  br i1 %17, label %18, label %32

18:                                               ; preds = %14
  %19 = load i32*, i32** %1, align 8
  %20 = load i32, i32* %2, align 4
  %21 = load i32, i32* %5, align 4
  %22 = mul nsw i32 %20, %21
  %23 = sext i32 %22 to i64
  %24 = getelementptr inbounds i32, i32* %19, i64 %23
  %25 = load i32, i32* %3, align 4
  %26 = sext i32 %25 to i64
  %27 = getelementptr inbounds i32, i32* %24, i64 %26
  %28 = call i32 (i8*, ...) @__isoc99_scanf(i8* getelementptr inbounds ([3 x i8], [3 x i8]* @.str.1, i64 0, i64 0), i32* %27)
  br label %29

29:                                               ; preds = %18
  %30 = load i32, i32* %3, align 4
  %31 = add nsw i32 %30, 1
  store i32 %31, i32* %3, align 4
  br label %14

32:                                               ; preds = %14
  br label %33

33:                                               ; preds = %32
  %34 = load i32, i32* %2, align 4
  %35 = add nsw i32 %34, 1
  store i32 %35, i32* %2, align 4
  br label %9

36:                                               ; preds = %9
  store i32 0, i32* %3, align 4
  br label %37

37:                                               ; preds = %76, %36
  %38 = load i32, i32* %3, align 4
  %39 = load i32, i32* %5, align 4
  %40 = icmp slt i32 %38, %39
  br i1 %40, label %41, label %79

41:                                               ; preds = %37
  store i32 1, i32* %2, align 4
  br label %42

42:                                               ; preds = %72, %41
  %43 = load i32, i32* %2, align 4
  %44 = load i32, i32* %4, align 4
  %45 = add nsw i32 %44, 1
  %46 = icmp slt i32 %43, %45
  br i1 %46, label %47, label %52

47:                                               ; preds = %42
  %48 = load i32, i32* %2, align 4
  %49 = load i32, i32* %3, align 4
  %50 = add nsw i32 %49, 1
  %51 = icmp sle i32 %48, %50
  br label %52

52:                                               ; preds = %47, %42
  %53 = phi i1 [ false, %42 ], [ %51, %47 ]
  br i1 %53, label %54, label %75

54:                                               ; preds = %52
  %55 = load i32*, i32** %1, align 8
  %56 = load i32, i32* %2, align 4
  %57 = sub nsw i32 %56, 1
  %58 = load i32, i32* %5, align 4
  %59 = mul nsw i32 %57, %58
  %60 = sext i32 %59 to i64
  %61 = getelementptr inbounds i32, i32* %55, i64 %60
  %62 = load i32, i32* %3, align 4
  %63 = sext i32 %62 to i64
  %64 = getelementptr inbounds i32, i32* %61, i64 %63
  %65 = getelementptr inbounds i32, i32* %64, i64 1
  %66 = load i32, i32* %2, align 4
  %67 = sext i32 %66 to i64
  %68 = sub i64 0, %67
  %69 = getelementptr inbounds i32, i32* %65, i64 %68
  %70 = load i32, i32* %69, align 4
  %71 = call i32 (i8*, ...) @printf(i8* getelementptr inbounds ([4 x i8], [4 x i8]* @.str.2, i64 0, i64 0), i32 %70)
  br label %72

72:                                               ; preds = %54
  %73 = load i32, i32* %2, align 4
  %74 = add nsw i32 %73, 1
  store i32 %74, i32* %2, align 4
  br label %42

75:                                               ; preds = %52
  br label %76

76:                                               ; preds = %75
  %77 = load i32, i32* %3, align 4
  %78 = add nsw i32 %77, 1
  store i32 %78, i32* %3, align 4
  br label %37

79:                                               ; preds = %37
  store i32 1, i32* %2, align 4
  br label %80

80:                                               ; preds = %121, %79
  %81 = load i32, i32* %2, align 4
  %82 = load i32, i32* %4, align 4
  %83 = icmp slt i32 %81, %82
  br i1 %83, label %84, label %124

84:                                               ; preds = %80
  store i32 1, i32* %3, align 4
  br label %85

85:                                               ; preds = %117, %84
  %86 = load i32, i32* %3, align 4
  %87 = load i32, i32* %5, align 4
  %88 = icmp sle i32 %86, %87
  br i1 %88, label %89, label %96

89:                                               ; preds = %85
  %90 = load i32, i32* %3, align 4
  %91 = load i32, i32* %4, align 4
  %92 = add nsw i32 %91, 1
  %93 = load i32, i32* %2, align 4
  %94 = sub nsw i32 %92, %93
  %95 = icmp slt i32 %90, %94
  br label %96

96:                                               ; preds = %89, %85
  %97 = phi i1 [ false, %85 ], [ %95, %89 ]
  br i1 %97, label %98, label %120

98:                                               ; preds = %96
  %99 = load i32*, i32** %1, align 8
  %100 = load i32, i32* %2, align 4
  %101 = load i32, i32* %3, align 4
  %102 = add nsw i32 %100, %101
  %103 = sub nsw i32 %102, 1
  %104 = load i32, i32* %5, align 4
  %105 = mul nsw i32 %103, %104
  %106 = sext i32 %105 to i64
  %107 = getelementptr inbounds i32, i32* %99, i64 %106
  %108 = load i32, i32* %5, align 4
  %109 = sext i32 %108 to i64
  %110 = getelementptr inbounds i32, i32* %107, i64 %109
  %111 = load i32, i32* %3, align 4
  %112 = sext i32 %111 to i64
  %113 = sub i64 0, %112
  %114 = getelementptr inbounds i32, i32* %110, i64 %113
  %115 = load i32, i32* %114, align 4
  %116 = call i32 (i8*, ...) @printf(i8* getelementptr inbounds ([4 x i8], [4 x i8]* @.str.2, i64 0, i64 0), i32 %115)
  br label %117

117:                                              ; preds = %98
  %118 = load i32, i32* %3, align 4
  %119 = add nsw i32 %118, 1
  store i32 %119, i32* %3, align 4
  br label %85

120:                                              ; preds = %96
  br label %121

121:                                              ; preds = %120
  %122 = load i32, i32* %2, align 4
  %123 = add nsw i32 %122, 1
  store i32 %123, i32* %2, align 4
  br label %80

124:                                              ; preds = %80
  ret void
}

declare dso_local i32 @__isoc99_scanf(i8*, ...) #1

; Function Attrs: nounwind
declare dso_local noalias i8* @calloc(i64, i64) #2

declare dso_local i32 @printf(i8*, ...) #1


!llvm.module.flags = !{!0}
!llvm.ident = !{!1}

!0 = !{i32 1, !"wchar_size", i32 4}
!1 = !{!"clang version 10.0.0-4ubuntu1 "}
